; Function Attrs: mustprogress uwtable
define hidden void @_ZN6google8protobuf8compiler4java17ClassNameResolver26GetExtensionIdentifierNameB5cxx11EPKNS0_15FieldDescriptorEbb(ptr noalias sret(%"class.std::__cxx11::basic_string") align 8 %agg.result, ptr noundef nonnull align 8 dereferenceable(112) %this, ptr noundef readonly captures(none) %descriptor, i1 noundef zeroext %immutable, i1 noundef zeroext %kotlin) local_unnamed_addr #3 align 2 personality ptr @__gxx_personality_v0 {
entry:
  %ref.tmp.i = alloca %"class.std::__cxx11::basic_string", align 8
  %ref.tmp = alloca %"class.absl::lts_20230802::AlphaNum", align 8
  %ref.tmp3 = alloca %"class.std::__cxx11::basic_string", align 8
  %ref.tmp5 = alloca %"class.absl::lts_20230802::AlphaNum", align 8
  %ref.tmp7 = alloca %"class.absl::lts_20230802::AlphaNum", align 8
  %containing_type_.i = getelementptr inbounds nuw i8, ptr %descriptor, i64 32
  %0 = load ptr, ptr %containing_type_.i, align 8
  call void @llvm.lifetime.start.p0(i64 32, ptr nonnull %ref.tmp.i)
  call fastcc void @_ZN6google8protobuf8compiler4java12_GLOBAL__N_123ClassNameWithoutPackageB5cxx11EPKNS0_10DescriptorEb(ptr noalias align 8 %ref.tmp.i, ptr noundef readonly %0)
  %call.i = call { i64, ptr } @_ZNKSt7__cxx1112basic_stringIcSt11char_traitsIcESaIcEEcvSt17basic_string_viewIcS2_EEv(ptr noundef nonnull align 8 dereferenceable(32) %ref.tmp.i) #18, !noalias !19
  %file_.i.i = getelementptr inbounds nuw i8, ptr %0, i64 16
  %1 = load ptr, ptr %file_.i.i, align 8, !noalias !19
  %options_.i.i.i = getelementptr inbounds nuw i8, ptr %1, i64 128
  %2 = load ptr, ptr %options_.i.i.i, align 8, !noalias !19
  %java_multiple_files_.i.i.i.i = getelementptr inbounds nuw i8, ptr %2, i64 160
  %3 = load i8, ptr %java_multiple_files_.i.i.i.i, align 8, !noalias !19
  %tobool.i.i.i.i = trunc i8 %3 to i1
  %4 = extractvalue { i64, ptr } %call.i, 1
  %5 = extractvalue { i64, ptr } %call.i, 0
  invoke void @_ZN6google8protobuf8compiler4java17ClassNameResolver16GetClassFullNameB5cxx11ESt17basic_string_viewIcSt11char_traitsIcEEPKNS0_14FileDescriptorEbbb(ptr nonnull sret(%"class.std::__cxx11::basic_string") align 8 %ref.tmp3, ptr noundef nonnull align 8 dereferenceable(112) %this, i64 %5, ptr %4, ptr noundef nonnull %1, i1 noundef zeroext %immutable, i1 noundef zeroext %tobool.i.i.i.i, i1 noundef zeroext %kotlin)
          to label %invoke.cont6 unwind label %lpad.i

common.resume:                                    ; preds = %lpad, %lpad.i
  %ref.tmp3.sink = phi ptr [ %ref.tmp3, %lpad ], [ %ref.tmp.i, %lpad.i ]
  %common.resume.op = phi { ptr, i32 } [ %15, %lpad ], [ %6, %lpad.i ]
  call void @_ZNSt7__cxx1112basic_stringIcSt11char_traitsIcESaIcEED1Ev(ptr noundef nonnull align 8 dereferenceable(32) %ref.tmp3.sink) #18
  resume { ptr, i32 } %common.resume.op

lpad.i:                                           ; preds = %entry
  %6 = landingpad { ptr, i32 }
          cleanup
  br label %common.resume

invoke.cont6:                                     ; preds = %entry
  call void @_ZNSt7__cxx1112basic_stringIcSt11char_traitsIcESaIcEED1Ev(ptr noundef nonnull align 8 dereferenceable(32) %ref.tmp.i) #18
  call void @llvm.lifetime.end.p0(i64 32, ptr nonnull %ref.tmp.i)
  %call.i2 = call { i64, ptr } @_ZNKSt7__cxx1112basic_stringIcSt11char_traitsIcESaIcEEcvSt17basic_string_viewIcS2_EEv(ptr noundef nonnull align 8 dereferenceable(32) %ref.tmp3) #18
  %7 = extractvalue { i64, ptr } %call.i2, 0
  store i64 %7, ptr %ref.tmp, align 8
  %8 = getelementptr inbounds nuw i8, ptr %ref.tmp, i64 8
  %9 = extractvalue { i64, ptr } %call.i2, 1
  store ptr %9, ptr %8, align 8
  store i64 1, ptr %ref.tmp5, align 8
  %10 = getelementptr inbounds nuw i8, ptr %ref.tmp5, i64 8
  store ptr @.str.3, ptr %10, align 8
  %all_names_.i = getelementptr inbounds nuw i8, ptr %descriptor, i64 8
  %11 = load ptr, ptr %all_names_.i, align 8
  %call.i3 = call { i64, ptr } @_ZNKSt7__cxx1112basic_stringIcSt11char_traitsIcESaIcEEcvSt17basic_string_viewIcS2_EEv(ptr noundef nonnull align 8 dereferenceable(32) %11) #18
  %12 = extractvalue { i64, ptr } %call.i3, 0
  store i64 %12, ptr %ref.tmp7, align 8
  %13 = getelementptr inbounds nuw i8, ptr %ref.tmp7, i64 8
  %14 = extractvalue { i64, ptr } %call.i3, 1
  store ptr %14, ptr %13, align 8
  invoke void @_ZN4absl12lts_202308026StrCatB5cxx11ERKNS0_8AlphaNumES3_S3_(ptr sret(%"class.std::__cxx11::basic_string") align 8 %agg.result, ptr noundef nonnull align 8 dereferenceable(48) %ref.tmp, ptr noundef nonnull align 8 dereferenceable(48) %ref.tmp5, ptr noundef nonnull align 8 dereferenceable(48) %ref.tmp7)
          to label %invoke.cont11 unwind label %lpad

invoke.cont11:                                    ; preds = %invoke.cont6
  call void @_ZNSt7__cxx1112basic_stringIcSt11char_traitsIcESaIcEED1Ev(ptr noundef nonnull align 8 dereferenceable(32) %ref.tmp3) #18
  ret void

lpad:                                             ; preds = %invoke.cont6
  %15 = landingpad { ptr, i32 }
          cleanup
  br label %common.resume
}